target datalayout = "e-m:e-p270:32:32-p271:32:32-p272:64:64-i64:64-i128:128-f80:128-n8:16:32:64-S128"
target triple = "x86_64-pc-linux-gnu"

%struct.Pdr_Man_t_ = type { ptr, ptr, ptr, ptr, ptr, ptr, ptr, ptr, %struct.Vec_Ptr_t_, ptr, i32, i32, ptr, ptr, ptr, ptr, ptr, ptr, i32, i32, ptr, ptr, ptr, i32, i32, ptr, ptr, ptr, ptr, ptr, ptr, ptr, ptr, ptr, ptr, ptr, ptr, ptr, ptr, i32, i32, i32, i32, i32, i32, i32, i32, i32, i32, i32, i32, i32, i32, i32, i32, i32, i64, i64, i64, i64, i64, i64, i64, i64, i64, i64, i64, i64 }
%struct.Vec_Ptr_t_ = type { i32, i32, ptr }
%struct.Vec_Int_t_ = type { i32, i32, ptr }
%struct.sat_solver_t = type { i32, i32, i32, i32, %struct.Sat_Mem_t_, i32, i32, ptr, ptr, i32, i32, i32, i32, i32, i64, i64, i64, ptr, ptr, i32, i32, %struct.veci_t, ptr, i32, ptr, ptr, ptr, ptr, ptr, ptr, ptr, ptr, %struct.veci_t, %struct.veci_t, %struct.veci_t, %struct.veci_t, ptr, %struct.veci_t, i32, i32, i32, double, double, i32, i32, i32, %struct.stats_t, i32, i32, i32, i32, i32, i64, i64, i64, %struct.veci_t, ptr, i32, i32, i32, %struct.veci_t, %struct.veci_t, i32, i32, i32, ptr, ptr, i32, ptr, i32, i32, %struct.veci_t, %struct.veci_t, %struct.veci_t, ptr, ptr, i32, ptr }
%struct.Sat_Mem_t_ = type { [2 x i32], [2 x i32], [2 x i32], [2 x i32], i32, i32, i32, i32, ptr }
%struct.stats_t = type { i32, i32, i32, i64, i64, i64, i64, i64, i64, i64 }
%struct.veci_t = type { i32, i32, ptr }

; Function Attrs: nounwind uwtable
define internal i32 @Vec_IntSize(ptr noundef %0) #0 {
  %2 = alloca ptr, align 8
  store ptr %0, ptr %2, align 8
  %3 = load ptr, ptr %2, align 8
  %4 = getelementptr inbounds %struct.Vec_Int_t_, ptr %3, i32 0, i32 1
  %5 = load i32, ptr %4, align 4
  ret i32 %5
}

; Function Attrs: nounwind uwtable
define internal ptr @Vec_IntArray(ptr noundef %0) #0 {
  %2 = alloca ptr, align 8
  store ptr %0, ptr %2, align 8
  %3 = load ptr, ptr %2, align 8
  %4 = getelementptr inbounds %struct.Vec_Int_t_, ptr %3, i32 0, i32 2
  %5 = load ptr, ptr %4, align 8
  ret ptr %5
}

; Function Attrs: nounwind uwtable
define internal i64 @sat_solver_set_runtime_limit(ptr noundef %0, i64 noundef %1) #0 {
  %3 = alloca ptr, align 8
  %4 = alloca i64, align 8
  %5 = alloca i64, align 8
  store ptr %0, ptr %3, align 8
  store i64 %1, ptr %4, align 8
  %6 = load ptr, ptr %3, align 8
  %7 = getelementptr inbounds %struct.sat_solver_t, ptr %6, i32 0, i32 54
  %8 = load i64, ptr %7, align 8
  store i64 %8, ptr %5, align 8
  %9 = load i64, ptr %4, align 8
  %10 = load ptr, ptr %3, align 8
  %11 = getelementptr inbounds %struct.sat_solver_t, ptr %10, i32 0, i32 54
  store i64 %9, ptr %11, align 8
  %12 = load i64, ptr %5, align 8
  ret i64 %12
}

; Function Attrs: nounwind uwtable
define internal i64 @Pdr_ManTimeLimit(ptr noundef %0) #0 {
  %2 = alloca i64, align 8
  %3 = alloca ptr, align 8
  store ptr %0, ptr %3, align 8
  %4 = load ptr, ptr %3, align 8
  %5 = getelementptr inbounds %struct.Pdr_Man_t_, ptr %4, i32 0, i32 56
  %6 = load i64, ptr %5, align 8
  %7 = icmp eq i64 %6, 0
  br i1 %7, label %8, label %12

8:                                                ; preds = %1
  %9 = load ptr, ptr %3, align 8
  %10 = getelementptr inbounds %struct.Pdr_Man_t_, ptr %9, i32 0, i32 57
  %11 = load i64, ptr %10, align 8
  store i64 %11, ptr %2, align 8
  br label %37

12:                                               ; preds = %1
  %13 = load ptr, ptr %3, align 8
  %14 = getelementptr inbounds %struct.Pdr_Man_t_, ptr %13, i32 0, i32 57
  %15 = load i64, ptr %14, align 8
  %16 = icmp eq i64 %15, 0
  br i1 %16, label %17, label %21

17:                                               ; preds = %12
  %18 = load ptr, ptr %3, align 8
  %19 = getelementptr inbounds %struct.Pdr_Man_t_, ptr %18, i32 0, i32 56
  %20 = load i64, ptr %19, align 8
  store i64 %20, ptr %2, align 8
  br label %37

21:                                               ; preds = %12
  %22 = load ptr, ptr %3, align 8
  %23 = getelementptr inbounds %struct.Pdr_Man_t_, ptr %22, i32 0, i32 56
  %24 = load i64, ptr %23, align 8
  %25 = load ptr, ptr %3, align 8
  %26 = getelementptr inbounds %struct.Pdr_Man_t_, ptr %25, i32 0, i32 57
  %27 = load i64, ptr %26, align 8
  %28 = icmp slt i64 %24, %27
  br i1 %28, label %29, label %33

29:                                               ; preds = %21
  %30 = load ptr, ptr %3, align 8
  %31 = getelementptr inbounds %struct.Pdr_Man_t_, ptr %30, i32 0, i32 56
  %32 = load i64, ptr %31, align 8
  store i64 %32, ptr %2, align 8
  br label %37

33:                                               ; preds = %21
  %34 = load ptr, ptr %3, align 8
  %35 = getelementptr inbounds %struct.Pdr_Man_t_, ptr %34, i32 0, i32 57
  %36 = load i64, ptr %35, align 8
  store i64 %36, ptr %2, align 8
  br label %37

37:                                               ; preds = %33, %29, %17, %8
  %38 = load i64, ptr %2, align 8
  ret i64 %38
}

; Function Attrs: nounwind uwtable
define i32 @Pdr_ManCheckCubeCs(ptr noundef %0, i32 noundef %1, ptr noundef %2) #0 {
  %4 = alloca i32, align 4
  %5 = alloca ptr, align 8
  %6 = alloca i32, align 4
  %7 = alloca ptr, align 8
  %8 = alloca ptr, align 8
  %9 = alloca ptr, align 8
  %10 = alloca i64, align 8
  %11 = alloca i32, align 4
  store ptr %0, ptr %5, align 8
  store i32 %1, ptr %6, align 4
  store ptr %2, ptr %7, align 8
  %12 = load ptr, ptr %5, align 8
  %13 = load i32, ptr %6, align 4
  %14 = call ptr @Pdr_ManFetchSolver(ptr noundef %12, i32 noundef %13)
  store ptr %14, ptr %8, align 8
  %15 = load ptr, ptr %5, align 8
  %16 = load i32, ptr %6, align 4
  %17 = load ptr, ptr %7, align 8
  %18 = call ptr @Pdr_ManCubeToLits(ptr noundef %15, i32 noundef %16, ptr noundef %17, i32 noundef 0, i32 noundef 0)
  store ptr %18, ptr %9, align 8
  %19 = load ptr, ptr %8, align 8
  %20 = load ptr, ptr %5, align 8
  %21 = call i64 @Pdr_ManTimeLimit(ptr noundef %20)
  %22 = call i64 @sat_solver_set_runtime_limit(ptr noundef %19, i64 noundef %21)
  store i64 %22, ptr %10, align 8
  %23 = load ptr, ptr %8, align 8
  %24 = load ptr, ptr %9, align 8
  %25 = call ptr @Vec_IntArray(ptr noundef %24)
  %26 = load ptr, ptr %9, align 8
  %27 = call ptr @Vec_IntArray(ptr noundef %26)
  %28 = load ptr, ptr %9, align 8
  %29 = call i32 @Vec_IntSize(ptr noundef %28)
  %30 = sext i32 %29 to i64
  %31 = getelementptr inbounds i32, ptr %27, i64 %30
  %32 = call i32 @sat_solver_solve(ptr noundef %23, ptr noundef %25, ptr noundef %31, i64 noundef 0, i64 noundef 0, i64 noundef 0, i64 noundef 0)
  store i32 %32, ptr %11, align 4
  %33 = load ptr, ptr %8, align 8
  %34 = load i64, ptr %10, align 8
  %35 = call i64 @sat_solver_set_runtime_limit(ptr noundef %33, i64 noundef %34)
  %36 = load i32, ptr %11, align 4
  %37 = icmp eq i32 %36, 0
  br i1 %37, label %38, label %39

38:                                               ; preds = %3
  store i32 -1, ptr %4, align 4
  br label %43

39:                                               ; preds = %3
  %40 = load i32, ptr %11, align 4
  %41 = icmp eq i32 %40, -1
  %42 = zext i1 %41 to i32
  store i32 %42, ptr %4, align 4
  br label %43

43:                                               ; preds = %39, %38
  %44 = load i32, ptr %4, align 4
  ret i32 %44
}