; Function Attrs: nounwind uwtable
define range(i32 -1, 2) i32 @Pdr_ManCheckCubeCs(ptr noundef %0, i32 noundef %1, ptr noundef readonly captures(none) %2) local_unnamed_addr #0 {
  %4 = tail call ptr @Pdr_ManFetchSolver(ptr noundef %0, i32 noundef %1)
  %5 = tail call ptr @Pdr_ManCubeToLits(ptr noundef %0, i32 noundef %1, ptr noundef %2, i32 noundef 0, i32 noundef 0)
  %6 = getelementptr inbounds nuw i8, ptr %0, i64 368
  %7 = load i64, ptr %6, align 8
  %8 = icmp eq i64 %7, 0
  %9 = getelementptr inbounds nuw i8, ptr %0, i64 376
  %10 = load i64, ptr %9, align 8
  br i1 %8, label %Pdr_ManTimeLimit.exit, label %11

11:                                               ; preds = %3
  %12 = icmp eq i64 %10, 0
  br i1 %12, label %Pdr_ManTimeLimit.exit, label %13

13:                                               ; preds = %11
  %..i = tail call i64 @llvm.smin.i64(i64 %7, i64 %10)
  br label %Pdr_ManTimeLimit.exit

Pdr_ManTimeLimit.exit:                            ; preds = %3, %11, %13
  %.0.i = phi i64 [ %7, %11 ], [ %..i, %13 ], [ %10, %3 ]
  %14 = getelementptr inbounds nuw i8, ptr %4, i64 512
  %15 = load i64, ptr %14, align 8
  store i64 %.0.i, ptr %14, align 8
  %16 = getelementptr i8, ptr %5, i64 8
  %.val16 = load ptr, ptr %16, align 8
  %17 = getelementptr i8, ptr %5, i64 4
  %.val17 = load i32, ptr %17, align 4
  %18 = sext i32 %.val17 to i64
  %19 = getelementptr inbounds i32, ptr %.val16, i64 %18
  %20 = tail call i32 @sat_solver_solve(ptr noundef %4, ptr noundef %.val16, ptr noundef %19, i64 noundef 0, i64 noundef 0, i64 noundef 0, i64 noundef 0) #8
  store i64 %15, ptr %14, align 8
  %21 = icmp eq i32 %20, 0
  %22 = icmp eq i32 %20, -1
  %23 = zext i1 %22 to i32
  %.0 = select i1 %21, i32 -1, i32 %23
  ret i32 %.0
}